target datalayout = "e-m:e-p270:32:32-p271:32:32-p272:64:64-i64:64-i128:128-f80:128-n8:16:32:64-S128"
target triple = "x86_64-pc-linux-gnu"

%"struct.OpenImageIO::v3_1_0::TypeDesc" = type { i8, i8, i8, i8, i32 }

@_ZN11OpenImageIO6v3_1_012_GLOBAL__N_113basetype_sizeE = internal global [16 x i32] [i32 0, i32 0, i32 1, i32 1, i32 2, i32 2, i32 4, i32 4, i32 8, i32 8, i32 2, i32 4, i32 8, i32 8, i32 8, i32 8], align 16

; Function Attrs: mustprogress nounwind uwtable
define noundef i64 @_ZNK11OpenImageIO6v3_1_08TypeDesc8basesizeEv(ptr noundef nonnull align 4 dereferenceable(8) %0) #7 align 2 {
  %2 = alloca i64, align 8
  %3 = alloca ptr, align 8
  store ptr %0, ptr %3, align 8, !tbaa !8
  %4 = load ptr, ptr %3, align 8
  %5 = getelementptr inbounds nuw %"struct.OpenImageIO::v3_1_0::TypeDesc", ptr %4, i32 0, i32 0
  %6 = load i8, ptr %5, align 4, !tbaa !12
  %7 = zext i8 %6 to i32
  %8 = icmp sge i32 %7, 16
  br i1 %8, label %9, label %10

9:                                                ; preds = %1
  store i64 0, ptr %2, align 8
  br label %17

10:                                               ; preds = %1
  %11 = getelementptr inbounds nuw %"struct.OpenImageIO::v3_1_0::TypeDesc", ptr %4, i32 0, i32 0
  %12 = load i8, ptr %11, align 4, !tbaa !12
  %13 = zext i8 %12 to i64
  %14 = getelementptr inbounds nuw [16 x i32], ptr @_ZN11OpenImageIO6v3_1_012_GLOBAL__N_113basetype_sizeE, i64 0, i64 %13
  %15 = load i32, ptr %14, align 4, !tbaa !21
  %16 = sext i32 %15 to i64
  store i64 %16, ptr %2, align 8
  br label %17

17:                                               ; preds = %10, %9
  %18 = load i64, ptr %2, align 8
  ret i64 %18
}