; Function Attrs: mustprogress nofree norecurse nosync nounwind willreturn memory(argmem: read) uwtable
define noundef range(i64 -2147483648, 2147483648) i64 @_ZNK11OpenImageIO6v3_1_08TypeDesc8basesizeEv(ptr noundef nonnull readonly align 4 captures(none) dereferenceable(8) %0) local_unnamed_addr #6 align 2 {
  %2 = load i8, ptr %0, align 4, !tbaa !3
  %3 = icmp ugt i8 %2, 15
  br i1 %3, label %9, label %4

4:                                                ; preds = %1
  %5 = zext nneg i8 %2 to i64
  %6 = getelementptr inbounds nuw [16 x i32], ptr @_ZN11OpenImageIO6v3_1_012_GLOBAL__N_113basetype_sizeE, i64 0, i64 %5
  %7 = load i32, ptr %6, align 4, !tbaa !21
  %8 = sext i32 %7 to i64
  br label %9

9:                                                ; preds = %1, %4
  %.0 = phi i64 [ %8, %4 ], [ 0, %1 ]
  ret i64 %.0
}